c__builtin__
set
p0
((lp1
Vnin3
p2
aV6884
p3
aV145797\u3002
p4
aV\u30021998
p5
aV-332
p6
aV\u3002900208
p7
aV\u3002007
p8
aV9400
p9
aV091
p10
aV10-15\uff0c
p11
aVcai1
p12
aV400\uff0c\uff0c000
p13
aVlai2
p14
aV66606\u3002
p15
aV780\uff0c
p16
aV3-1
p17
aVchen1
p18
aV1\uff0c400
p19
aV24\u3002
p20
aVman4
p21
aV2204
p22
aV2\uff0c6
p23
aV\uff0c64
p24
aV3970
p25
aV368
p26
aV\uff0c1996
p27
aVtong1
p28
aV578
p29
aV15207\u3002
p30
aV1984-1985
p31
aV1551357
p32
aVxu4
p33
aV\uff0c20
p34
aVhuan3
p35
aV-14
p36
aV122\u3002
p37
aV1548886
p38
aVyao1
p39
aV54\u3002
p40
aV27
p41
aV2008
p42
aV49\uff0c
p43
aV14554
p44
aVquan2
p45
aV6200
p46
aVhe4
p47
aV\u3002900406
p48
aVsen1
p49
aVduo2
p50
aV--27632
p51
aVcan2
p52
aV185
p53
aV13
p54
aV6510
p55
aV\u30013
p56
aV2000
p57
aV\u3002891202
p58
aV07\u3002
p59
aVtong4
p60
aV855
p61
aV924
p62
aVlie4
p63
aV666
p64
aV12\uff0c
p65
aVne4
p66
aV150\uff0c00
p67
aV181858
p68
aVnv3
p69
aV\u300120
p70
aV5307
p71
aV1140
p72
aV701\uff0c000
p73
aVran3
p74
aV1978\u30011982
p75
aVshi3
p76
aV620
p77
aV3755
p78
aVlve4
p79
aV175
p80
aVhui2
p81
aV\u3002890125
p82
aVtuo3
p83
aV\u30021974
p84
aV3190
p85
aV086
p86
aV67\uff0c
p87
aV61384\uff0c
p88
aVming2
p89
aV224
p90
aV1\uff0c270
p91
aV\u3002911026
p92
aVlang2
p93
aV---2
p94
aV5468
p95
aVning4
p96
aV1941
p97
aV03\u3002
p98
aVkang2
p99
aVao1
p100
aV2580
p101
aV\u3002900306
p102
aV737
p103
aV1988\u30011990\u30011993
p104
aV438
p105
aV6-3\u30016-0\u30017-5
p106
aV58
p107
aVrang3
p108
aVlai4
p109
aVbai1
p110
aV340-500
p111
aV\uff0c38
p112
aV1900-2002
p113
aV1206
p114
aVtan3
p115
aVni4
p116
aV2--2
p117
aV31
p118
aVci1
p119
aV1\uff0c
p120
aV3-
p121
aV2255
p122
aV420
p123
aV350-380
p124
aVjie1
p125
aV1741
p126
aVle1
p127
aV7747
p128
aVbai4
p129
aVliu2
p130
aV4255
p131
aV2\uff0c7
p132
aV306
p133
aVtiao3
p134
aV10\uff0c739
p135
aVshua4
p136
aV2108
p137
aV-236
p138
aV\uff1a2000
p139
aV49\u3002
p140
aVxu3
p141
aV496
p142
aV792
p143
aV9\uff0c000
p144
aV7350
p145
aV-52
p146
aV6779
p147
aVao3
p148
aV9800
p149
aVxing2
p150
aV2770
p151
aVkun1
p152
aV\u300132
p153
aV6-9
p154
aV262\uff0c
p155
aV241
p156
aVmao3
p157
aV2005
p158
aVzong3
p159
aV22\uff0c
p160
aV\uff0c2006
p161
aVli3
p162
aV380
p163
aV\uff0c1993
p164
aV\u3002891206
p165
aV322
p166
aV\u3001134
p167
aV\u300112
p168
aVcheng2
p169
aV168
p170
aV08645
p171
aV2001-2004
p172
aV3291
p173
aVdao2
p174
aV\uff0c1994
p175
aVliang3
p176
aV39
p177
aVshan1
p178
aVpen1
p179
aV3571
p180
aV-135\uff0c
p181
aVzhi1
p182
aV\u3001100
p183
aVshuang3
p184
aV47
p185
aV\uff0c380
p186
aV1953
p187
aVqia4
p188
aV1\uff1a00\uff0c
p189
aV-8
p190
aV570
p191
aV58\uff0c
p192
aV\u3002900630
p193
aV4000
p194
aV2438
p195
aV\uff0c47
p196
aV5---
p197
aV723\u3002
p198
aV\uff0c9
p199
aV\u3002891205
p200
aV25\u3002
p201
aV148\uff0c
p202
aV08599
p203
aV12476
p204
aVtuo1
p205
aV10717
p206
aV170\u3002
p207
aV8\uff0c900
p208
aV1\uff0c260
p209
aV505316
p210
aV26199
p211
aV4--116
p212
aV0904
p213
aV11694\uff0c
p214
aV225
p215
aVxiao4
p216
aV1\uff0c448
p217
aV1\u30017
p218
aV550
p219
aVbei1
p220
aV4140
p221
aV359
p222
aV220-230
p223
aVxian4
p224
aV10817\uff0c
p225
aV790-760
p226
aV007
p227
aV1931
p228
aVxue4
p229
aV104\uff0c000
p230
aV748
p231
aVyao4
p232
aVxu2
p233
aV465\uff0c
p234
aV\uff0c\uff0c\uff0c\uff0c
p235
aV--21\uff1a
p236
aVli4
p237
aV186\uff0c300
p238
aV4-2
p239
aV-1
p240
aV\uff0c23
p241
aV6900
p242
aV25\uff0c000
p243
aVbiao3
p244
aV545\u3002
p245
aV\u300110
p246
aV1956
p247
aVbao3
p248
aV\uff0c33
p249
aV5950
p250
aVshang3
p251
aV500
p252
aV1100
p253
aV75\uff0c925
p254
aV242\uff0c
p255
aV3000-5000
p256
aV21
p257
aV330
p258
aV619\uff0c750
p259
aV11276\u3002
p260
aV-80
p261
aV39000
p262
aV-100\u3002
p263
aVpu3
p264
aV53
p265
aVlu3
p266
aVce4
p267
aV911911\u3002
p268
aV2\u30012
p269
aV295
p270
aV\uff0c12
p271
aV\uff0c400
p272
aV1650
p273
aV142
p274
aV6-3\uff0c6-1\uff0c6-1
p275
aVwai1
p276
aVjuan1
p277
aV\u3002891005
p278
aV5-18
p279
aV4283
p280
aV128
p281
aV38104
p282
aVqian3
p283
aV336
p284
aVgui3
p285
aVtui4
p286
aVzai3
p287
aVsui2
p288
aV10\uff0c59460
p289
aV5600
p290
aVtie3
p291
aV130
p292
aV\uff0c58
p293
aV\u3002910226
p294
aV901105
p295
aV\uff0c0
p296
aVdai4
p297
aV339
p298
aV1917
p299
aV13\uff0c
p300
aV\u3002880719
p301
aV110-916
p302
aV819
p303
aV3456
p304
aV-11
p305
aVtui3
p306
aV\uff0c36
p307
aV\u3001190
p308
aVcuo2
p309
aVhen4
p310
aV\uff0c210
p311
aV03\uff0c9
p312
aV\u3002891006
p313
aV286
p314
aV\u3002900331
p315
aV191
p316
aVbiao4
p317
aV\u3002910109
p318
aV2-716
p319
aVhua2
p320
aVtu4
p321
aV2812
p322
aVhui3
p323
aV113\uff0c
p324
aV3519
p325
aVnei3
p326
aV7\uff0c818
p327
aV5\u3001
p328
aVzou3
p329
aV33\u3002
p330
aV16-24
p331
aV14001
p332
aV11125
p333
aV041\uff0c
p334
aVnang2
p335
aV248
p336
aV\uff0c1978\u30011979\u30011981\u30011982
p337
aV1619
p338
aV15739
p339
aV1993
p340
aVsao1
p341
aV809
p342
aVchu2
p343
aV4\u30017
p344
aV7540
p345
aV02-1
p346
aV\uff0c\uff0c
p347
aV110-116
p348
aV45
p349
aV117\uff0c
p350
aV1912
p351
aV487\uff0c
p352
aV\u300118
p353
aV-\uff1a
p354
aV05
p355
aV8100
p356
aV3277
p357
aV04\uff0c
p358
aV196
p359
aV4777
p360
aV3522
p361
aV1982
p362
aV313\u3002
p363
aVban1
p364
aVshe1
p365
aV111\uff0c
p366
aV11\uff0c
p367
aV1\uff1a0
p368
aV-150
p369
aV\u3002900926
p370
aV1-0
p371
aVsui3
p372
aVkua3
p373
aVyang1
p374
aV2010
p375
aV11357
p376
aVqing3
p377
aVyan1
p378
aVkai4
p379
aV9172
p380
aV88-106
p381
aVchao3
p382
aV\uff0c51--
p383
aV510\uff0c
p384
aV207
p385
aV\uff1a\uff1a
p386
aV20015
p387
aVwei2
p388
aV5079
p389
aV13182
p390
aVsun3
p391
aVba1
p392
aV11373
p393
aV1933
p394
aVma2
p395
aV-135
p396
aV431\u3002
p397
aV--0
p398
aV1973\uff0c1968
p399
aV304\uff0c
p400
aVxun2
p401
aV2520
p402
aV-59
p403
aV737-900
p404
aV914
p405
aVpeng1
p406
aV9550
p407
aV6-1\uff0c7-6\uff0c7-6
p408
aVbo2
p409
aV42\u3002
p410
aVchou2
p411
aV430
p412
aV601\u3002
p413
aVshua1
p414
aV075\uff0c
p415
aV59268\u3002
p416
aV25000
p417
aVshao1
p418
aV839
p419
aV21\uff0c
p420
aVnu4
p421
aV-2\uff0c
p422
aV1\uff0c40893
p423
aV252\uff0c
p424
aV1796-1866
p425
aV13200
p426
aV34\uff0c110\uff0c
p427
aV900
p428
aVchu3
p429
aV\uff0c2005
p430
aV092
p431
aV063
p432
aV729
p433
aV1970
p434
aV727-698
p435
aV2004\u3002
p436
aV340
p437
aV56\uff0c800
p438
aV5-316
p439
aVqi2
p440
aVxian1
p441
aV82\uff0c
p442
aV387
p443
aVshui3
p444
aV2360
p445
aV410
p446
aVwo4
p447
aV9390
p448
aV\u3002890926
p449
aV6-3\u30016-3\uff0c
p450
aVguang1
p451
aVmian3
p452
aV504
p453
aV\u3002881223
p454
aVgu1
p455
aVqin3
p456
aV271\uff0c
p457
aV1144
p458
aV106
p459
aV807\uff0c506
p460
aVtang1
p461
aV327
p462
aV\uff0c--1
p463
aVjia4
p464
aV2816
p465
aVjun4
p466
aV402
p467
aVman2
p468
aV198
p469
aVtu3
p470
aV91
p471
aVgang4
p472
aV\u3001129\uff0c000
p473
aV\u3002891126
p474
aV8\u3002
p475
aVdu2
p476
aV1997-1999
p477
aV3440
p478
aV7-5\uff0c6-2\uff0c6-2
p479
aVzhuang1
p480
aVgou3
p481
aV\u3002890718
p482
aVdu3
p483
aVn2
p484
aV149
p485
aV9322
p486
aVchong4
p487
aVnan2
p488
aVdeng4
p489
aV\uff0c8
p490
aV2\u30014
p491
aVqing2
p492
aVzhen3
p493
aV-12
p494
aV4800
p495
aVhai3
p496
aV\u3002900828
p497
aV518\uff0c000
p498
aV095
p499
aVyu1
p500
aVjiang4
p501
aV88\u3002
p502
aVheng2
p503
aVzu1
p504
aV\uff0c130
p505
aV305
p506
aV\u30029
p507
aV1334
p508
aVban3
p509
aV8\uff1a09
p510
aV5500
p511
aV4300
p512
aV60-65
p513
aV54505\u3002
p514
aV389\uff0c
p515
aV249
p516
aVan4
p517
aV\u3002890811
p518
aVbao2
p519
aVtiao4
p520
aV\u3002901009
p521
aVbu4
p522
aV27\u3001
p523
aV6-2
p524
aVhua1
p525
aV\u30013\u30012
p526
aV38\u3002
p527
aVchao1
p528
aV1125
p529
aV1388\uff0c
p530
aV\u300211
p531
aV13-13
p532
aVpei1
p533
aV--55
p534
aV\uff0c8-10
p535
aV2004
p536
aV9\uff0c46510
p537
aVnan1
p538
aVzhe5
p539
aV14
p540
aV1274
p541
aVjiu3
p542
aV260\uff0c927
p543
aVyu2
p544
aV1800
p545
aV31805
p546
aV\u2026
p547
aV1\u30016
p548
aV436
p549
aV2050
p550
aV14-2\uff0c
p551
aV9832
p552
aV\u3001\u3001\u3001
p553
aV076\uff0c
p554
aV1224
p555
aV12227-29
p556
aV14\u3001
p557
aV279
p558
aV8-
p559
aV36\u3002
p560
aVdao4
p561
aV153
p562
aV62
p563
aV270
p564
aV6-4\u30016-76-8\u30016-3\uff0c
p565
aV34456
p566
aV9\uff1a45\uff0c
p567
aVzhui1
p568
aV55\uff0c
p569
aV722
p570
aV1025
p571
aV1999-2000
p572
aV323
p573
aVyi3
p574
aV642
p575
aVlv4
p576
aVku4
p577
aV1850
p578
aV634
p579
aV84
p580
aV\u3002900922
p581
aVmou2
p582
aV8320
p583
aV10631
p584
aV910
p585
aV\uff0c-1
p586
aV10\uff0c
p587
aVti2
p588
aV96-103
p589
aV59\uff0c
p590
aVchang4
p591
aV2\uff1a25\uff1a45\u3002
p592
aV1997
p593
aV1445
p594
aV1961
p595
aV2615
p596
aVlv3
p597
aV6962\uff0c
p598
aV09286-91
p599
aVshao2
p600
aV-20
p601
aV1958
p602
aV2\uff1a2913\u3002
p603
aVbie4
p604
aV\u300225
p605
aV2110
p606
aVbi4
p607
aVque4
p608
aV290424
p609
aV4-1
p610
aV3252
p611
aV3-1-2
p612
aVyang2
p613
aV79
p614
aV\u3002891122
p615
aVsuo3
p616
aVwa3
p617
aV112
p618
aV107
p619
aV08230
p620
aV\uff0c\uff0c\uff0c
p621
aV62567
p622
aV-210
p623
aV8457
p624
aVshuai3
p625
aV9\uff1a000330
p626
aV9129\uff0c
p627
aV1899-1974
p628
aV1878
p629
aV4601
p630
aV2\uff1a24
p631
aV\uff0c14
p632
aV628
p633
aV-08625
p634
aVza3
p635
aV2\uff1a1
p636
aVluo1
p637
aV500\uff0c
p638
aV126
p639
aV8848
p640
aV7\u30010
p641
aV6-2\uff0c6-3
p642
aV1826
p643
aVe1
p644
aV-130
p645
aV6\uff0c2225
p646
aV\u30027
p647
aV0\uff1a3\uff0c
p648
aV10\uff0c12
p649
aV1390
p650
aV8445
p651
aVhai1
p652
aV301\uff0c
p653
aV\uff1a30
p654
aVhen3
p655
aVchun1
p656
aV2989
p657
aVxian2
p658
aV\u3002890628
p659
aV\uff0c434\uff0c000
p660
aV2230
p661
aV89-64
p662
aV293\uff0c
p663
aV1900\u30011908
p664
aV66\u3002
p665
aV2-8
p666
aV3\uff0c300
p667
aVsuan1
p668
aV9\u3002
p669
aV2442
p670
aV\uff1a7
p671
aVnuo2
p672
aVpin3
p673
aV787
p674
aVleng3
p675
aVha3
p676
aV77\uff0c
p677
aV4900
p678
aV12\uff0c000
p679
aV0923
p680
aV56\uff0c
p681
aV842
p682
aV--15\uff0c
p683
aVzan3
p684
aV6650
p685
aVe4
p686
aV\uff0c54
p687
aVchi2
p688
aV47536
p689
aVkuang4
p690
aV\u30014
p691
aVxu1
p692
aVsheng2
p693
aVxi3
p694
aV08250
p695
aV64\uff0c
p696
aV80\uff0c1998
p697
aV1--5
p698
aVma1
p699
aVdai3
p700
aV1250
p701
aV2400
p702
aV428
p703
aV15155\uff0c
p704
aV3320
p705
aV109\uff0c
p706
aVxian3
p707
aV-102
p708
aVhan4
p709
aV\uff0c3\uff0c500
p710
aV\u3002891214
p711
aVweng1
p712
aV2005\uff0c
p713
aV767-300
p714
aV1965
p715
aV5145
p716
aV7\u3002
p717
aVhu2
p718
aVming4
p719
aVwang1
p720
aV3\u3002
p721
aV90\uff0c
p722
aV55-57\u3002
p723
aV084
p724
aV-560
p725
aVsao4
p726
aVkan1
p727
aVchi3
p728
aV80-74
p729
aVzhun3
p730
aVdou3
p731
aV184\uff0c065
p732
aV25-26
p733
aVba3
p734
aV\uff0c6000
p735
aVrong2
p736
aVdi2
p737
aV776
p738
aV4350
p739
aV7\u30017
p740
aVchai1
p741
aV46664
p742
aV9306
p743
aV09028
p744
aV\u3002891105
p745
aV1060
p746
aV\u30021978
p747
aV02
p748
aV\u3002900405
p749
aV19\uff0c888
p750
aVwen3
p751
aV\u3002900606
p752
aV89-38
p753
aV7098\uff0c
p754
aV7-6\uff0c3-6\uff0c6-0
p755
aV20\u3002
p756
aVdun4
p757
aVchuai4
p758
aV1900
p759
aV\u3002890630
p760
aVfang1
p761
aV05\u3002
p762
aV08473
p763
aV727
p764
aV2974
p765
aV\u3002910123
p766
aVliu1
p767
aV510
p768
aV972
p769
aVtuo4
p770
aV\uff0c53
p771
aVlong2
p772
aV9429
p773
aV------
p774
aVzuan1
p775
aV284
p776
aV09538
p777
aV443\u3002
p778
aV12469
p779
aVwei1
p780
aV1915
p781
aV\uff0c-3
p782
aVbian1
p783
aVneng2
p784
aVta1
p785
aV\u3001
p786
aV349
p787
aVgua3
p788
aV751
p789
aV7730
p790
aV80\u3002
p791
aV\uff0c1-9
p792
aV114
p793
aV\uff0c5
p794
aVsu1
p795
aV78\uff0c
p796
aV7412
p797
aV1222
p798
aV1340
p799
aV779
p800
aV517
p801
aV7\uff0c500
p802
aVxiang4
p803
aV-18
p804
aV1580
p805
aV\uff0c\u2026
p806
aVtie1
p807
aV74
p808
aVqin4
p809
aV1944
p810
aV393\u3002
p811
aV1998\u3002
p812
aVwa4
p813
aV193\uff0c
p814
aV8600
p815
aV107\uff0c240
p816
aVgun4
p817
aV375\u3002
p818
aVruo4
p819
aVfei3
p820
aV10\uff1a00
p821
aVo1
p822
aV-36
p823
aV29\uff0c
p824
aV06\uff0c
p825
aV9304
p826
aV14\u3002
p827
aV6789
p828
aV2366
p829
aVban4
p830
aV91-03-12
p831
aV02\u3002
p832
aV\u3002891108
p833
aV177
p834
aV6-4\u30016-2
p835
aV3\u30014
p836
aV203\uff0c
p837
aV6-3\u30016-3\u30016-768\u30016-1
p838
aVxia1
p839
aV16\uff0c
p840
aV\u3002900227
p841
aV\u3002910514
p842
aVqiong1
p843
aV1992-1993
p844
aV\u300136
p845
aV\uff0c1956
p846
aVba4
p847
aVdan4
p848
aV60\uff0c
p849
aV\uff0c1990-1998
p850
aV2420
p851
aV1980
p852
aV\uff0c11
p853
aVxi1
p854
aV2544
p855
aVna1
p856
aV308
p857
aV\u30021993
p858
aV176
p859
aV8\uff0c100
p860
aV690
p861
aVchuang2
p862
aVang1
p863
aV7-11
p864
aVcen2
p865
aV2\uff0c600
p866
aV991\uff0c
p867
aV-24
p868
aVqin1
p869
aV3\uff0c45517
p870
aV6\uff0c500
p871
aV114\uff0c
p872
aV\uff0c69
p873
aVmeng2
p874
aV15
p875
aV115
p876
aV447
p877
aV08571
p878
aV---------\u3002
p879
aV1959
p880
aV\uff0c2010
p881
aVkang4
p882
aVpao3
p883
aVzhong1
p884
aV15\u300116
p885
aV1950
p886
aV--\u3002
p887
aV8\u30019
p888
aV777-300\uff0c
p889
aV96
p890
aVwu3
p891
aV12\u300113
p892
aV10-12
p893
aV1949\u3002
p894
aV141
p895
aVwu2
p896
aVnao2
p897
aV1\uff0c600
p898
aV19993-1994
p899
aVzhang4
p900
aVbeng1
p901
aV41\uff0c
p902
aV4202820
p903
aV7\uff0c526
p904
aV-134
p905
aV7200
p906
aVfeng2
p907
aV3800
p908
aVfa3
p909
aVmang2
p910
aVzhe3
p911
aVkai1
p912
aVcuo4
p913
aVre3
p914
aVmai3
p915
aVbing3
p916
aV1051\uff0c
p917
aV15-29
p918
aV3510
p919
aV9000
p920
aV330\uff0c000
p921
aV1\uff0c31853\u3002
p922
aV5400
p923
aV4093
p924
aV70
p925
aV18-23
p926
aV\uff0c1977
p927
aV4200
p928
aV12-18
p929
aV68\u3002
p930
aVgui1
p931
aV08270\u3002
p932
aV17\uff0c2000
p933
aV209
p934
aVang4
p935
aVni3
p936
aV3405
p937
aVrao2
p938
aV\uff0c7
p939
aV784
p940
aVteng2
p941
aV059
p942
aV1752-1835
p943
aV\u3002880812
p944
aV1860
p945
aV4230
p946
aV7-675\uff0c6-2
p947
aVsang4
p948
aV07
p949
aV108-96
p950
aVdu4
p951
aV9477
p952
aV6-3\uff0c7-6
p953
aV794\uff0c
p954
aV170
p955
aV38
p956
aV05\uff0c
p957
aV1546
p958
aV\uff0c2001
p959
aV1999
p960
aVbing4
p961
aV220
p962
aV8\uff0c
p963
aVshuai1
p964
aV122
p965
aV1948
p966
aV09244
p967
aV2653
p968
aVguo3
p969
aVpi4
p970
aV--10
p971
aV6800
p972
aV325
p973
aVshu3
p974
aV\uff0c08550
p975
aV872
p976
aV59\u3002
p977
aV576
p978
aVque1
p979
aV262
p980
aV000
p981
aV0500
p982
aV\u300138
p983
aV956
p984
aV348
p985
aV750
p986
aV\u30021999
p987
aVcui4
p988
aV321
p989
aV284\u3002
p990
aVguang4
p991
aV\u30015000
p992
aV1-2-3
p993
aVchan2
p994
aVcha4
p995
aV326\uff0c
p996
aV\uff0c440
p997
aV4400
p998
aV1949\uff0c
p999
aVlao4
p1000
aV6287
p1001
aV41\u3002
p1002
aV103
p1003
aV4780
p1004
aV47\u3002
p1005
aV105
p1006
aV17967\u3002
p1007
aV1600
p1008
aVao2
p1009
aV380\u3002
p1010
aV3\uff1a
p1011
aVnao4
p1012
aV513
p1013
aV2430
p1014
aV7000
p1015
aVdeng3
p1016
aV945
p1017
aV1270
p1018
aV09439
p1019
aV152
p1020
aV2\uff0c2000
p1021
aVkao1
p1022
aV789
p1023
aV1127
p1024
aV\u3002891102
p1025
aV89
p1026
aV08880\uff0c
p1027
aV281
p1028
aVkuo4
p1029
aV135
p1030
aVtang2
p1031
aV8070
p1032
aV3\uff0c36098
p1033
aVtao4
p1034
aV170\uff0c000
p1035
aVshen4
p1036
aVmo1
p1037
aV74\uff0c
p1038
aVyou5
p1039
aV120\uff0c036
p1040
aV02\uff0c9
p1041
aV\u3002890419
p1042
aV133\uff0c
p1043
aVnian1
p1044
aV1964
p1045
aV755\uff0c900
p1046
aV-486\uff0c
p1047
aV3\uff0c51334\uff0c
p1048
aV1\u3002
p1049
aV11937
p1050
aV\u300233
p1051
aVchuan3
p1052
aV91-03-31
p1053
aVwu1
p1054
aV40\u3002
p1055
aV34\u3002
p1056
aVrou2
p1057
aV48\uff0c
p1058
aV522
p1059
aV8720
p1060
aVsha1
p1061
aV677
p1062
aV4\uff0c6
p1063
aV02\uff0c
p1064
aVfu4
p1065
aV31\uff0c12
p1066
aV385
p1067
aVhuo4
p1068
aV781\uff0c
p1069
aV\uff0c42
p1070
aV-46
p1071
aVkou3
p1072
aVtang3
p1073
aVju4
p1074
aVlei5
p1075
aV50\uff0c000
p1076
aV300-600
p1077
aV31415
p1078
aV\u30021997
p1079
aV\u3002881231
p1080
aV2010\uff0c
p1081
aV65\u3002
p1082
aVquan3
p1083
aV1\uff0c149
p1084
aV3375
p1085
aV-907
p1086
aVti1
p1087
aV8300
p1088
aV7\uff0c98518\uff0c
p1089
aV\uff0c1990
p1090
aV35\u3002
p1091
aV1046265\u3002
p1092
aV28\u3002
p1093
aV360
p1094
aV09195-98
p1095
aV40\uff0c248
p1096
aVbin1
p1097
aV455
p1098
aV60-70
p1099
aV038
p1100
aVzhi4
p1101
aV3270
p1102
aV72\u3002
p1103
aVxin4
p1104
aV-64
p1105
aV\uff0c26
p1106
aV099
p1107
aV17746
p1108
aVnong2
p1109
aVgen3
p1110
aV1987
p1111
aV9120
p1112
aVlie3
p1113
aV1160
p1114
aV08672
p1115
aV148\uff0c\u3002
p1116
aV\u3002891104
p1117
aV2017
p1118
aV61
p1119
aVchao2
p1120
aVda4
p1121
aVhun4
p1122
aV20\uff0c\uff0c000
p1123
aV\u3002891124
p1124
aV20012002
p1125
aV10198
p1126
aV697\u30016
p1127
aV1452
p1128
aVnie4
p1129
aV3600
p1130
aV4-0
p1131
aV8800
p1132
aV8210
p1133
aV7220
p1134
aV197
p1135
aVmen2
p1136
aV92\u3002
p1137
aV1886
p1138
aV5\uff0c000
p1139
aV12\uff0c2618
p1140
aVyue1
p1141
aVbang3
p1142
aVbin4
p1143
aVya2
p1144
aVtou2
p1145
aVpie1
p1146
aV43\uff0c
p1147
aV\u30010
p1148
aV1740
p1149
aV\u30026
p1150
aV--3
p1151
aVgeng1
p1152
aV08920
p1153
aVke4
p1154
aV\uff0c2000
p1155
aV2585
p1156
aV000-2000
p1157
aVyou4
p1158
aV\uff0c242
p1159
aV117\u3002
p1160
aV5089
p1161
aVxuan1
p1162
aVbie3
p1163
aV5700
p1164
aVhou4
p1165
aVzi3
p1166
aV345
p1167
aV1994
p1168
aVting2
p1169
aV11-14
p1170
aVtan2
p1171
aV212
p1172
aV379
p1173
aV64\uff0c000
p1174
aV59--61
p1175
aVshen2
p1176
aV--68
p1177
aV5
p1178
aV-5
p1179
aVqing4
p1180
aV335
p1181
aV\u3002910331
p1182
aV202\u3002
p1183
aV\u3002891129
p1184
aV--157
p1185
aV\uff0c76
p1186
aV1147
p1187
aV470
p1188
aVtao2
p1189
aVshai4
p1190
aV161
p1191
aV669
p1192
aVbang4
p1193
aV444\u3002
p1194
aV44000
p1195
aV3293
p1196
aV11956
p1197
aV36
p1198
aV95
p1199
aVhun1
p1200
aVju2
p1201
aV0
p1202
aV2000\uff0c
p1203
aV\u3002890128
p1204
aVda2
p1205
aV9500
p1206
aV1998\u3001
p1207
aVsai4
p1208
aV05-10\u3002
p1209
aVken3
p1210
aV10662\u3002
p1211
aV797
p1212
aV-486\u3002
p1213
aVwan1
p1214
aV7\u3001
p1215
aVpan4
p1216
aV56
p1217
aV2\u3002
p1218
aV\u3002891021
p1219
aVjia5
p1220
aV\uff0c95
p1221
aV264-241\u3002
p1222
aVniang4
p1223
aV186
p1224
aV124\uff0c
p1225
aV6-1\u30016-3
p1226
aVgong3
p1227
aV6\uff1a45
p1228
aV09000
p1229
aV8835\uff0c
p1230
aVxiang3
p1231
aV413\uff0c
p1232
aV975
p1233
aVpin1
p1234
aV329
p1235
aVbao4
p1236
aV230
p1237
aV3\uff0c650
p1238
aV\uff0c80
p1239
aV160
p1240
aV5-0
p1241
aV\uff0c1980
p1242
aVge2
p1243
aVhuo2
p1244
aVchuai3
p1245
aVpu2
p1246
aV\uff0c199
p1247
aVting1
p1248
aV742\uff0c
p1249
aVtao1
p1250
aV\uff0c--52
p1251
aV87\uff0c
p1252
aV33\u3001
p1253
aV\u3002910613
p1254
aV\uff0c1981
p1255
aV3\u30013
p1256
aVjin4
p1257
aV7090
p1258
aV136
p1259
aV3965
p1260
aV80-89
p1261
aVyao3
p1262
aVyi4
p1263
aV2943
p1264
aV\u300173
p1265
aVqiong2
p1266
aV\uff0c470
p1267
aVshu2
p1268
aV\u3002911130
p1269
aV9\uff0c500
p1270
aV15\u3002
p1271
aVqiang4
p1272
aV3601
p1273
aV862
p1274
aVgui4
p1275
aV441
p1276
aV865
p1277
aVkun3
p1278
aV14\u300116
p1279
aV10897\uff0c
p1280
aV2-25
p1281
aV\u3002
p1282
aVli2
p1283
aVpiao2
p1284
aV8735
p1285
aV9900
p1286
aV10606
p1287
aVxuan2
p1288
aV142\uff0c
p1289
aV\uff0c100
p1290
aV00\uff0c
p1291
aVci4
p1292
aV2\u30017
p1293
aV001
p1294
aV8589
p1295
aV747-400
p1296
aV-154
p1297
aVcong1
p1298
aV880
p1299
aV289
p1300
aVlun4
p1301
aV17\u300115
p1302
aV2100\uff0c
p1303
aV378
p1304
aVzan1
p1305
aVpie3
p1306
aV087
p1307
aVca1
p1308
aV2754
p1309
aVai2
p1310
aV\uff0c--
p1311
aV026\uff0c
p1312
aVlin2
p1313
aV22\u3002
p1314
aV\u3002891204
p1315
aV3630
p1316
aV85\uff0c
p1317
aVwang3
p1318
aV08929
p1319
aVzhuan4
p1320
aV3535\uff0c
p1321
aV370
p1322
aVchuan4
p1323
aV66
p1324
aV\u3002900803
p1325
aVjia1
p1326
aVdei3
p1327
aVru3
p1328
aV2002-2003\u3002
p1329
aV2\uff0c8\u3002
p1330
aV\u3002910403
p1331
aV2300
p1332
aV\u3002900823
p1333
aV4803
p1334
aV---1
p1335
aVnan3
p1336
aV\u3001\u3002
p1337
aV\uff0c2004
p1338
aV10223
p1339
aVcha2
p1340
aV1200438\uff0c
p1341
aV635
p1342
aV4\u30014
p1343
aV\u3002890603
p1344
aVqie4
p1345
aV6200806
p1346
aV1848
p1347
aV2
p1348
aV20\uff0c
p1349
aV2990
p1350
aV\uff0c21
p1351
aV17333\uff0c
p1352
aVzeng4
p1353
aVla3
p1354
aV54226\u3002
p1355
aVji3
p1356
aV4\u30013
p1357
aV11610-13
p1358
aV\u3002910112
p1359
aVguan4
p1360
aVkong4
p1361
aV7500
p1362
aV541
p1363
aV\u30021994
p1364
aV6-2\u30016-3
p1365
aV-53
p1366
aV25\uff0c
p1367
aVe2
p1368
aV\uff0c5988
p1369
aV025\uff0c
p1370
aV57\u3002
p1371
aV\u3002891110
p1372
aV\u3002880928
p1373
aV145\u3002
p1374
aV65
p1375
aVyang3
p1376
aV35\uff0c000
p1377
aV\uff1a-
p1378
aV362
p1379
aV32\u3002
p1380
aV824
p1381
aV035\u3002
p1382
aV100-110
p1383
aVchang2
p1384
aVfen3
p1385
aV116
p1386
aV4600
p1387
aVqiu2
p1388
aVsi1
p1389
aV27\uff0c
p1390
aVkua1
p1391
aVzhuo2
p1392
aV18\uff0c500
p1393
aV99\uff0c
p1394
aV9200
p1395
aVde2
p1396
aV33\uff0c
p1397
aV2\uff1a0
p1398
aV63
p1399
aV901153
p1400
aVdao1
p1401
aV\uff0c6
p1402
aV-2\u3002
p1403
aV42
p1404
aV-4
p1405
aV\u3002900123
p1406
aVzao2
p1407
aV488
p1408
aV173\uff0c
p1409
aVfo2
p1410
aV-95
p1411
aV\uff0c2
p1412
aVsan3
p1413
aV62\uff0c787
p1414
aV-105\u3002
p1415
aV1976
p1416
aVkuai3
p1417
aVei2
p1418
aVchuang1
p1419
aV133
p1420
aV58250
p1421
aV11289--92
p1422
aV183\uff0c
p1423
aV10115
p1424
aV26-28\uff0c
p1425
aVjiao3
p1426
aV--18\uff0c
p1427
aVzuo4
p1428
aV1820
p1429
aVchou3
p1430
aVbu3
p1431
aV881
p1432
aV9293
p1433
aV\u300260
p1434
aVa5
p1435
aVzhuai1
p1436
aV2001\uff1a
p1437
aV6698
p1438
aV104\u3002
p1439
aV11628
p1440
aVlu2
p1441
aVtong3
p1442
aV201\u3002
p1443
aVre4
p1444
aV08443
p1445
aVhong4
p1446
aVlong4
p1447
aV21\u3002
p1448
aV897\u3001198
p1449
aV261669\u3002
p1450
aVxiu3
p1451
aVmo4
p1452
aVpo2
p1453
aV246
p1454
aV199
p1455
aV333\u3002
p1456
aV5899
p1457
aV720
p1458
aV\uff0c62
p1459
aV\uff0c\u3002
p1460
aV23
p1461
aV45\uff0c
p1462
aV-6
p1463
aV\uff0c487
p1464
aVyuan1
p1465
aV-47
p1466
aV11\uff0c000
p1467
aVzhuai3
p1468
aV7\uff0c600
p1469
aV08\uff0c
p1470
aV12\uff0c828
p1471
aV09292
p1472
aV9-11\uff0c
p1473
aVxing3
p1474
aV303
p1475
aV1932
p1476
aVshun3
p1477
aV--4
p1478
aV12000\u3002
p1479
aV5\u3002
p1480
aV\u3001\u3001\uff0c
p1481
aV\u3002890816
p1482
aV\u3002910327
p1483
aV880622
p1484
aVza2
p1485
aV\uff0c1982
p1486
aV\u3002891212
p1487
aVti3
p1488
aV128\uff0c
p1489
aVzhao1
p1490
aVhe1
p1491
aV328
p1492
aV92\uff0c
p1493
aV1\u3001
p1494
aVden4
p1495
aV9950
p1496
aV11419
p1497
aV6-4\uff0c4-6\uff0c4-6\uff0c7-5\uff0c6-2
p1498
aV\u3002891019
p1499
aVjian3
p1500
aV189
p1501
aV747--400
p1502
aV06\u3002
p1503
aV5030
p1504
aV001\u3002
p1505
aV180\uff0c000
p1506
aVyun4
p1507
aV190
p1508
aV10\uff1a300500
p1509
aVniu1
p1510
aV6459
p1511
aV91\u3002
p1512
aV11124\uff0c
p1513
aV-26
p1514
aV1518
p1515
aV100\u3001200
p1516
aVmian2
p1517
aV-\u3002
p1518
aVcao2
p1519
aVlei3
p1520
aVxun1
p1521
aV33375
p1522
aV1533
p1523
aVjue2
p1524
aV251892
p1525
aVnao3
p1526
aVmi3
p1527
aVlao2
p1528
aVmao1
p1529
aV1453\uff0c
p1530
aV\uff0c27
p1531
aV650
p1532
aV4\u30016
p1533
aV353
p1534
aV1020
p1535
aV320\uff0c
p1536
aVzhong3
p1537
aVheng1
p1538
aV\uff0c104
p1539
aV43\u3002
p1540
aVchuang4
p1541
aVyao2
p1542
aV300
p1543
aV2874
p1544
aV\u30028
p1545
aV1\uff0c38594\u3002
p1546
aV237
p1547
aV506\uff0c
p1548
aV445
p1549
aV\u3002900117
p1550
aVsang1
p1551
aV-19\uff1a\uff0c
p1552
aV998\uff0c500
p1553
aV137\uff0c
p1554
aV656889
p1555
aVgang3
p1556
aVsa1
p1557
aV1918
p1558
aV3219
p1559
aVlian3
p1560
aVpai3
p1561
aV311\uff0c561
p1562
aV1954
p1563
aV35-55\uff0c
p1564
aV1780
p1565
aV709
p1566
aVren3
p1567
aVliao4
p1568
aV598
p1569
aV1094575
p1570
aV11148
p1571
aV\uff0c160
p1572
aVjie2
p1573
aVla1
p1574
aVzai4
p1575
aVtou3
p1576
aVke1
p1577
aV4\uff1a
p1578
aV64
p1579
aVren4
p1580
aVpei2
p1581
aV\uff1a4
p1582
aVshui4
p1583
aV\uff1a\uff0c
p1584
aVqian1
p1585
aVzou1
p1586
aV260
p1587
aVwa5
p1588
aV0--
p1589
aV150\uff0c
p1590
aVbo1
p1591
aV172
p1592
aVgeng3
p1593
aV--225
p1594
aV2-12\uff0c
p1595
aVmu2
p1596
aV697\uff0c000
p1597
aV575
p1598
aVwei4
p1599
aV200\uff0c000
p1600
aVci3
p1601
aV571
p1602
aV23-26
p1603
aV1952
p1604
aV690-540
p1605
aV\u300111
p1606
aV25
p1607
aVruan3
p1608
aVshi2
p1609
aV\uff0c-\u3002
p1610
aVtui2
p1611
aV\u3002900705
p1612
aV10-50
p1613
aV165
p1614
aVmiao4
p1615
aVlv2
p1616
aV890927
p1617
aV\u300212
p1618
aV281\uff0c
p1619
aV242
p1620
aVxing4
p1621
aVmang3
p1622
aV63\u3002
p1623
aV-9-12
p1624
aV\uff1a\uff0c730
p1625
aV672\u30016
p1626
aVchan3
p1627
aV3012
p1628
aV268
p1629
aV058\uff0c
p1630
aV561
p1631
aV81-89
p1632
aV\uff0c360
p1633
aV\uff11
p1634
aV1\uff0c442
p1635
aVlou4
p1636
aV09310
p1637
aVye2
p1638
aVnu2
p1639
aV-1143
p1640
aV120\uff0c182
p1641
aVmao2
p1642
aV\u3002900103
p1643
aVzhu2
p1644
aV\uff0c16
p1645
aV463
p1646
aVgang1
p1647
aV1\uff0c460
p1648
aV18\u3002
p1649
aV2953
p1650
aV1989
p1651
aVhuo5
p1652
aVqie1
p1653
aVgu2
p1654
aV\u3002890404
p1655
aV196\u3002
p1656
aVchai2
p1657
aV676
p1658
aVqin2
p1659
aVkuan1
p1660
aV-82
p1661
aV194\u3002
p1662
aV777--200
p1663
aVzhong4
p1664
aV9
p1665
aV44-1316
p1666
aV--40
p1667
aV98\uff0c
p1668
aVchen4
p1669
aVqie2
p1670
aV276923
p1671
aV78
p1672
aV134208\u3002
p1673
aVzao1
p1674
aVmu4
p1675
aV\u3002900620
p1676
aV\uff0c--18
p1677
aVkai3
p1678
aV60
p1679
aV\u30019
p1680
aVguai4
p1681
aV9862\uff0c
p1682
aVa1
p1683
aV315386
p1684
aV2496
p1685
aV7380
p1686
aV8\uff0c848
p1687
aV-520
p1688
aV278\uff0c
p1689
aV6700
p1690
aV875
p1691
aV\u3002\uff0c
p1692
aV447\u3002
p1693
aV240
p1694
aV309
p1695
aV3122
p1696
aV1962
p1697
aV2339
p1698
aVfa4
p1699
aV--6
p1700
aV\uff0c7\uff1a00
p1701
aV4064
p1702
aVdun1
p1703
aV\uff0c1
p1704
aVwo3
p1705
aV--52
p1706
aV972\uff0c
p1707
aV402-
p1708
aV58\u3002
p1709
aV00
p1710
aVshe3
p1711
aVo2
p1712
aV316
p1713
aV5845\u3002
p1714
aV10
p1715
aVkua4
p1716
aV3500
p1717
aV\u3002890602
p1718
aV\uff0c120
p1719
aV4
p1720
aVhu3
p1721
aV32
p1722
aVcuo1
p1723
aV8-8
p1724
aV4675
p1725
aV--200
p1726
aV9814\u3002
p1727
aVpai2
p1728
aVmin3
p1729
aV333
p1730
aVte4
p1731
aVru2
p1732
aVdi4
p1733
aV2122
p1734
aV1609
p1735
aV\uff0c68
p1736
aV5675
p1737
aV77
p1738
aVzhuang4
p1739
aV11784
p1740
aV983
p1741
aV\u3002891010
p1742
aV2001-2002
p1743
aVwei3
p1744
aV350
p1745
aVbang1
p1746
aV1876
p1747
aVrui4
p1748
aV\u3002880828
p1749
aV737\u30016
p1750
aV5655
p1751
aVzan2
p1752
aVzu2
p1753
aV-2003
p1754
aV\uff0c30
p1755
aV14\uff0c
p1756
aV885
p1757
aV460\uff0c000
p1758
aV\u3002891001
p1759
aV2-3
p1760
aVzan4
p1761
aV3\u30015
p1762
aV371
p1763
aVpi3
p1764
aV14809
p1765
aVkou1
p1766
aV15178
p1767
aV143
p1768
aV\uff1a757
p1769
aV\u300127
p1770
aV1150
p1771
aV53\uff0c
p1772
aVsan1
p1773
aV225-275
p1774
aVke2
p1775
aVyuan4
p1776
aV5100
p1777
aVya3
p1778
aVxiao1
p1779
aV67
p1780
aV15000
p1781
aVbeng4
p1782
aVbo3
p1783
aVdang1
p1784
aV3\uff1a15
p1785
aVcu1
p1786
aV43-34
p1787
aV801\u3002
p1788
aVping2
p1789
aVchuang3
p1790
aV233
p1791
aV680
p1792
aV121\uff0c
p1793
aV211
p1794
aVchun3
p1795
aVsa4
p1796
aVde5
p1797
aVdang3
p1798
aV\uff0c84
p1799
aVceng4
p1800
aV14\u300115
p1801
aVpao2
p1802
aV\uff0c45
p1803
aV785
p1804
aV1-17
p1805
aVping1
p1806
aVmiao1
p1807
aV78-99
p1808
aV890
p1809
aV29960
p1810
aV4-8
p1811
aVting3
p1812
aV29
p1813
aV05999
p1814
aV24\uff0c
p1815
aV304
p1816
aVran2
p1817
aV1990
p1818
aV851
p1819
aV11924
p1820
aVchui1
p1821
aVzhui4
p1822
aVyong4
p1823
aV08\u3002
p1824
aVru4
p1825
aVji2
p1826
aVzen3
p1827
aV50000
p1828
aV6\u3002
p1829
aV4\uff0c200
p1830
aV87
p1831
aV\u3002900330
p1832
aV1739
p1833
aVlong3
p1834
aV37\uff0c
p1835
aVche4
p1836
aVsui1
p1837
aVlei1
p1838
aV213
p1839
aV--14
p1840
aV10636
p1841
aV\uff0c1922
p1842
aVga1
p1843
aV174
p1844
aV1620
p1845
aVpou1
p1846
aV\u3002910116
p1847
aV1550
p1848
aV9324
p1849
aV551\uff0c
p1850
aVfan4
p1851
aV88\uff0c
p1852
aV\uff1a50
p1853
aV18\uff0c
p1854
aV3829
p1855
aV3010
p1856
aV973
p1857
aV521
p1858
aV9540
p1859
aV35
p1860
aV28\uff0c
p1861
aV193
p1862
aVao4
p1863
aV392\u3002
p1864
aVzi1
p1865
aVjiao1
p1866
aV26\u3002
p1867
aVza1
p1868
aV-2258
p1869
aV375\uff0c
p1870
aV75045
p1871
aVhe2
p1872
aV34\uff0c
p1873
aVque2
p1874
aV\u3002900626
p1875
aVsong3
p1876
aV302
p1877
aVshuang1
p1878
aV069
p1879
aV30\uff0c500
p1880
aV1487
p1881
aVzhan1
p1882
aV2795
p1883
aV10\uff0c71974
p1884
aV--64
p1885
aVchong1
p1886
aV\u3002890523
p1887
aVpiao1
p1888
aV07\uff0c
p1889
aV\uff0c10
p1890
aV372
p1891
aVmen4
p1892
aV9380
p1893
aVhu4
p1894
aVgua1
p1895
aVqiang2
p1896
aV11361
p1897
aVhu1
p1898
aV50-75
p1899
aV3297
p1900
aVzhu4
p1901
aVpu1
p1902
aV09411
p1903
aV2810
p1904
aV52\uff0c
p1905
aV413
p1906
aV153\uff0c
p1907
aV\uff0c3\uff0c000
p1908
aVsi4
p1909
aV2475
p1910
aV6-16-4
p1911
aV108\u3001119
p1912
aVrang4
p1913
aV24-26
p1914
aVjiong3
p1915
aV1-3
p1916
aVqu3
p1917
aV\u3002\u3002
p1918
aVtian3
p1919
aV4\u30012
p1920
aVtui1
p1921
aVla2
p1922
aV2065
p1923
aV766
p1924
aV5195
p1925
aVmu3
p1926
aVshe4
p1927
aV69
p1928
aVmi4
p1929
aV1000
p1930
aV6-1\uff0c6-0
p1931
aV\u3002891025
p1932
aV1\uff1a1
p1933
aV2\uff0c500
p1934
aV1969
p1935
aV129
p1936
aV26-1516\u3002
p1937
aVma4
p1938
aV8400
p1939
aV2396\uff0c
p1940
aVshe2
p1941
aVxue2
p1942
aV---\uff0c
p1943
aV----
p1944
aV373
p1945
aV69\u3002
p1946
aV1974
p1947
aVniang2
p1948
aVfu2
p1949
aVfei4
p1950
aV75
p1951
aV2786
p1952
aV2917
p1953
aV570856\u3002
p1954
aV2656
p1955
aVda1
p1956
aVqing1
p1957
aV263
p1958
aV03\uff0c
p1959
aVduo1
p1960
aV4500
p1961
aV6234
p1962
aV\uff0c85
p1963
aVfen2
p1964
aVlan4
p1965
aVpan1
p1966
aV1430
p1967
aVshao3
p1968
aV\uff0c22
p1969
aVdou4
p1970
aV\u3001--
p1971
aV1440
p1972
aV1165
p1973
aVling3
p1974
aV\uff0c2002
p1975
aV7\u30016
p1976
aV845
p1977
aV09
p1978
aV1312
p1979
aVpiao4
p1980
aVqie3
p1981
aVhao2
p1982
aVpo3
p1983
aV1\uff0c823
p1984
aV\uff0c31
p1985
aV32-34
p1986
aV1994-1998
p1987
aV1087\uff0c1
p1988
aV\uff0c600-1\uff0c650
p1989
aVnuan3
p1990
aV13\u30016
p1991
aV2250
p1992
aVzui4
p1993
aV12015
p1994
aVlang4
p1995
aV63\uff0c
p1996
aVyin2
p1997
aVgua4
p1998
aVfen4
p1999
aVliang2
p2000
aV\uff0c1970
p2001
aV\u30021995
p2002
aV294
p2003
aVmiu4
p2004
aVle4
p2005
aV3\uff0c600
p2006
aV\uff0c1200
p2007
aV610
p2008
aV\u30023
p2009
aV1487\uff0c
p2010
aV1417
p2011
aV10761\uff0c
p2012
aV\u3002900614
p2013
aV000\u30010
p2014
aV\u2026\u2026\u3002
p2015
aV\u3002900527
p2016
aVlun1
p2017
aV50
p2018
aVwen4
p2019
aVcan4
p2020
aVtou5
p2021
aV\u3002890113
p2022
aV\u3001-3
p2023
aV098
p2024
aV09459
p2025
aV51141
p2026
aV14000
p2027
aVji1
p2028
aV575\uff0c
p2029
aVhang1
p2030
aVshi1
p2031
aV394\uff0c
p2032
aVdeng1
p2033
aV\uff0c79
p2034
aV\u30011998
p2035
aVqia1
p2036
aV226
p2037
aV1988
p2038
aV157
p2039
aV6600
p2040
aV118
p2041
aV37\u3001
p2042
aV1616
p2043
aVdou1
p2044
aVrong1
p2045
aV\u3002\uff0c\uff0c
p2046
aVmian4
p2047
aVzi4
p2048
aV6\uff1a30
p2049
aV6\u30016
p2050
aV--26
p2051
aV710
p2052
aVhuan1
p2053
aVben1
p2054
aV7-\uff0c
p2055
aV12078
p2056
aV\u30012000
p2057
aV\uff1a\u3002
p2058
aVhai4
p2059
aV2700
p2060
aVtiao2
p2061
aV-15
p2062
aV1934
p2063
aV3894
p2064
aVge4
p2065
aV20
p2066
aVqiu1
p2067
aV\uff0c2400
p2068
aV2721
p2069
aVmen1
p2070
aV\u3001\u3001\u30011\u3001
p2071
aV1145
p2072
aV-51
p2073
aV2575
p2074
aV216
p2075
aV2-2
p2076
aV1516
p2077
aV013
p2078
aV4-5
p2079
aV987
p2080
aV\uff1f\u3002
p2081
aVfa2
p2082
aV750\uff0c000
p2083
aV1-8
p2084
aV900\uff0c000
p2085
aV120
p2086
aV047
p2087
aV\uff0c-15
p2088
aV215\u3002
p2089
aVxue1
p2090
aVman1
p2091
aV5656
p2092
aV1902
p2093
aVmao4
p2094
aVen4
p2095
aV402\uff0c
p2096
aV822-796
p2097
aVpa4
p2098
aVhao1
p2099
aV533
p2100
aV486
p2101
aV410-
p2102
aV\u3002881015
p2103
aV150\uff0c000
p2104
aV\u3002911212
p2105
aV214
p2106
aV\uff0c--16
p2107
aV501
p2108
aV9--
p2109
aV\uff1a12
p2110
aV4090
p2111
aV\u300231
p2112
aVya4
p2113
aV1998
p2114
aV187\uff0c
p2115
aV\uff0c81
p2116
aV\u3001\uff0c
p2117
aV08464
p2118
aVzhi3
p2119
aV713
p2120
aV145\uff0c
p2121
aV\u30012
p2122
aV--22
p2123
aVtan1
p2124
aV415
p2125
aV3\uff0c15236
p2126
aV17726\uff0c
p2127
aV\u3002900808
p2128
aVxiang1
p2129
aV2046
p2130
aV82
p2131
aV850
p2132
aV34-1
p2133
aVlu4
p2134
aV2046\uff0c
p2135
aV70\u3002
p2136
aV7279
p2137
aVkong1
p2138
aV134177\uff0c
p2139
aVguan3
p2140
aV3200
p2141
aV921
p2142
aV1251
p2143
aV34
p2144
aVer4
p2145
aV--47
p2146
aV19\uff0c
p2147
aV24000
p2148
aV26-28
p2149
aV--135
p2150
aV\u3002880727
p2151
aV\u3002901025
p2152
aV2710
p2153
aV8340
p2154
aV\u300237
p2155
aV319
p2156
aVzhou2
p2157
aV611
p2158
aVbao1
p2159
aVfei1
p2160
aV17286
p2161
aV1402
p2162
aV4691
p2163
aV16\u3002
p2164
aV6100
p2165
aV1570
p2166
aV09\uff0c11
p2167
aVmei3
p2168
aV8275
p2169
aVying2
p2170
aVkuang2
p2171
aV88
p2172
aVcao3
p2173
aV162
p2174
aV96\u3002
p2175
aV174\uff0c
p2176
aVsuo5
p2177
aVpang2
p2178
aV006
p2179
aV2452
p2180
aVpian1
p2181
aV\uff0c-8
p2182
aV7-\u3002
p2183
aVgong1
p2184
aVyong1
p2185
aV1829
p2186
aVche1
p2187
aVpai4
p2188
aV11-12
p2189
aVshuan4
p2190
aV\u3002910619
p2191
aVai4
p2192
aV1936
p2193
aV28
p2194
aV1924
p2195
aV19731990
p2196
aV4692
p2197
aV24
p2198
aV320
p2199
aVhuang1
p2200
aV484
p2201
aVgu4
p2202
aVyou3
p2203
aVqiao3
p2204
aV1\uff0c540
p2205
aV\uff0c50
p2206
aV222
p2207
aV-1186\uff0c
p2208
aV\uff0c28
p2209
aVhun2
p2210
aVxu5
p2211
aVying3
p2212
aV108\uff0c
p2213
aVzheng4
p2214
aV09131\uff0c
p2215
aV835
p2216
aV3\u30016
p2217
aV\uff0c3200
p2218
aV450
p2219
aV476\uff0c
p2220
aV1175
p2221
aV267
p2222
aVchou4
p2223
aV770
p2224
aVsuo1
p2225
aV512
p2226
aV937
p2227
aV06009
p2228
aV188
p2229
aV256
p2230
aVchang1
p2231
aV\u3002891022
p2232
aV08560
p2233
aV61\uff0c
p2234
aVpa2
p2235
aVhuang2
p2236
aV5300
p2237
aVjiao4
p2238
aV12-20
p2239
aV11575
p2240
aVsuan4
p2241
aV6047
p2242
aVqu1
p2243
aVsong4
p2244
aVyun2
p2245
aV\u3002900517
p2246
aV117
p2247
aVdian1
p2248
aV08551
p2249
aV\u3002900421
p2250
aVcui3
p2251
aV2567
p2252
aV480
p2253
aV565\uff0c000
p2254
aV00\u3002
p2255
aV567
p2256
aV121
p2257
aVbiao1
p2258
aV3237
p2259
aV\u3002890407
p2260
aV65\uff0c
p2261
aV13241
p2262
aV05\uff0c12
p2263
aVchen2
p2264
aV\uff0c25
p2265
aV5125
p2266
aV887
p2267
aVhuo1
p2268
aVcheng4
p2269
aVkuai4
p2270
aV49
p2271
aV267\uff0c
p2272
aVhuai4
p2273
aVbi1
p2274
aV\uff0c420
p2275
aVnian2
p2276
aV173
p2277
aV2811\uff0c
p2278
aVhong2
p2279
aV120047
p2280
aVkui4
p2281
aV6000
p2282
aV\uff0c-16
p2283
aV98
p2284
aV009
p2285
aV\uff0c66
p2286
aV30-40
p2287
aVshang5
p2288
aV671094
p2289
aVna4
p2290
aV2479
p2291
aV\uff0c7088
p2292
aV817
p2293
aV630
p2294
aVtian2
p2295
aV\u3002910530
p2296
aVlong1
p2297
aV43
p2298
aV\u3002900427
p2299
aVbie1
p2300
aVshuo1
p2301
aV\u3002891016
p2302
aV34-56
p2303
aV32483\uff0c
p2304
aVzhi2
p2305
aV2212
p2306
aV\uff0c90
p2307
aV1937
p2308
aVxiu4
p2309
aVyou2
p2310
aV-22
p2311
aV653
p2312
aV\uff0c46
p2313
aV2145
p2314
aV\u3002891015
p2315
aVxi2
p2316
aVzhou4
p2317
aV2463
p2318
aV45000
p2319
aV6830
p2320
aV23\u300124
p2321
aVcha1
p2322
aV\u3002891012
p2323
aVen1
p2324
aVpa1
p2325
aVyuan3
p2326
aVxia2
p2327
aV1623
p2328
aVpi2
p2329
aV6-2\uff0c6-4
p2330
aV45\u3002
p2331
aVzhua1
p2332
aV747
p2333
aV22717
p2334
aV7-5\uff0c6-0
p2335
aV247
p2336
aVzhua3
p2337
aV045\uff0c
p2338
aV7\uff0c300
p2339
aV6
p2340
aV1960
p2341
aV48\u3002
p2342
aVjiu1
p2343
aVtuo2
p2344
aV1976-83
p2345
aVsha2
p2346
aVtai4
p2347
aVlia3
p2348
aVpian4
p2349
aV\u3002900413
p2350
aV2706
p2351
aV184\uff0c000
p2352
aV989
p2353
aV56\u3002
p2354
aVzheng1
p2355
aV08441
p2356
aVhai2
p2357
aV1992\u30011996
p2358
aV2130
p2359
aV2015
p2360
aVnie1
p2361
aVhang4
p2362
aVnan4
p2363
aVxun4
p2364
aV11450
p2365
aVzhu1
p2366
aV\u3002890320
p2367
aVlao1
p2368
aV9\uff0c
p2369
aV1610
p2370
aV\u3001290
p2371
aVgou4
p2372
aVsheng4
p2373
aVyi2
p2374
aV7-5\uff0c4-6\uff0c6-3\uff0c6-4\uff0c
p2375
aV149\u3002
p2376
aV\u300122
p2377
aV3045
p2378
aV11413
p2379
aVbi2
p2380
aV2630
p2381
aV\u3002900501
p2382
aV2954
p2383
aV1\uff0c780
p2384
aV\uff0c-
p2385
aV39\uff0c
p2386
aV0317
p2387
aV1972
p2388
aV0328
p2389
aV\uff0c777-200
p2390
aV\u3002891007
p2391
aVcan1
p2392
aVzou4
p2393
aV-270
p2394
aV290
p2395
aV10\uff0c000
p2396
aV5412
p2397
aVduo4
p2398
aV04\u3002
p2399
aV\u3002891121
p2400
aV210
p2401
aVzhang1
p2402
aVguo4
p2403
aV6450
p2404
aV2\uff0c700
p2405
aV137
p2406
aV2095
p2407
aVshang1
p2408
aV2465
p2409
aV196\uff0c
p2410
aV140
p2411
aV7400
p2412
aV\u3002900608
p2413
aVdang4
p2414
aV5\uff0c
p2415
aV\uff0c83
p2416
aV17690
p2417
aVla4
p2418
aV747-200
p2419
aVpi1
p2420
aV\u3002900806
p2421
aVheng4
p2422
aVsai1
p2423
aV625
p2424
aVzha2
p2425
aV2000\u30012001\u30012004
p2426
aV390
p2427
aV-2000
p2428
aVtuan2
p2429
aV545
p2430
aV93\u3002
p2431
aVshui2
p2432
aV\uff0c1944
p2433
aV\u3002910820
p2434
aVshan4
p2435
aV--\uff0c
p2436
aV195
p2437
aV---\u3001
p2438
aV11229\uff0c
p2439
aVqu2
p2440
aVxiao2
p2441
aV63347
p2442
aV365
p2443
aVhuan2
p2444
aV6-4\uff0c6-4
p2445
aV\u3001119
p2446
aV505
p2447
aV180620\uff0c
p2448
aVshua3
p2449
aVxie4
p2450
aV-87
p2451
aV164
p2452
aV-1\uff0c
p2453
aVyou1
p2454
aVtun1
p2455
aV\uff0c330
p2456
aV1973
p2457
aVni1
p2458
aVnai4
p2459
aVga2
p2460
aV1867
p2461
aV209\uff0c
p2462
aV1\u30015
p2463
aVge3
p2464
aV111
p2465
aV757\u30016
p2466
aVcen1
p2467
aV3400
p2468
aV53\u3002
p2469
aV1989-1998
p2470
aVku3
p2471
aVzai1
p2472
aVba5
p2473
aV820
p2474
aV44\u3002
p2475
aVwa1
p2476
aV7\uff0c000
p2477
aVjian4
p2478
aV\u3002891003
p2479
aV3000-3500
p2480
aV065\uff0c
p2481
aV\uff1f\uff0c
p2482
aVci2
p2483
aV7800
p2484
aV10\u3002
p2485
aV08780
p2486
aVsa3
p2487
aVtun4
p2488
aV\uff1a2000\uff0c650
p2489
aVdui4
p2490
aV4118
p2491
aVpin4
p2492
aV629
p2493
aV37
p2494
aV8\uff0c500
p2495
aVchuan1
p2496
aVjing4
p2497
aV---
p2498
aVsui4
p2499
aV400
p2500
aVdiao3
p2501
aV23-24
p2502
aV\u3001\u3001
p2503
aV639
p2504
aVba2
p2505
aVlin3
p2506
aV958
p2507
aV202
p2508
aVdong1
p2509
aVmai4
p2510
aVxiao3
p2511
aV291515
p2512
aVxi4
p2513
aV41
p2514
aVwan3
p2515
aVrao3
p2516
aVne5
p2517
aVtiao1
p2518
aVguan1
p2519
aV12424\u3002
p2520
aV1908-1989
p2521
aV380--800
p2522
aVbie2
p2523
aVqiang1
p2524
aVtu2
p2525
aVmie4
p2526
aVpu4
p2527
aV5969
p2528
aV201
p2529
aVqun1
p2530
aV154
p2531
aVcai4
p2532
aV--1
p2533
aV876\uff0c
p2534
aV-330
p2535
aV018
p2536
aV09\u3002
p2537
aV75\uff0c
p2538
aV10922
p2539
aV\u3002890626
p2540
aVmiao2
p2541
aV3\uff0c000-3\uff0c500
p2542
aV16722\uff0c
p2543
aVrang1
p2544
aV\uff0c29
p2545
aV-380
p2546
aV8
p2547
aV\uff0c\u3001
p2548
aV37\u3002
p2549
aVkeng1
p2550
aV51
p2551
aVliu4
p2552
aV\u30024
p2553
aV024\uff0c
p2554
aV30\u3001
p2555
aVpo1
p2556
aVqia3
p2557
aV\uff0c2001-2002
p2558
aVhan2
p2559
aVjia3
p2560
aV71
p2561
aV\u3002891203
p2562
aV9973
p2563
aV-31
p2564
aV9201
p2565
aV70-80
p2566
aV2500
p2567
aV40600
p2568
aV003
p2569
aVji4
p2570
aV300\uff0c000
p2571
aV16
p2572
aV11325
p2573
aVdian3
p2574
aV\u3002890327
p2575
aV730
p2576
aV-10
p2577
aV\u3002880829
p2578
aV124
p2579
aVfang3
p2580
aV273
p2581
aVku1
p2582
aV\uff1a\u3001
p2583
aV110\uff0c
p2584
aVgai3
p2585
aV23\u3002
p2586
aVliao2
p2587
aVzhen4
p2588
aV46
p2589
aV--130
p2590
aVtian1
p2591
aV857\uff0c
p2592
aV60\u3002
p2593
aVjie3
p2594
aV-111
p2595
aV1949
p2596
aV10721
p2597
aV617
p2598
aVlou3
p2599
aV11\u3002
p2600
aVrun4
p2601
aV1-1516
p2602
aVguang3
p2603
aV\u3002891227
p2604
aVcai2
p2605
aV73
p2606
aVmo3
p2607
aV601\uff0c
p2608
aV94\u3002
p2609
aV901125
p2610
aV\uff0c587
p2611
aV83\uff0c
p2612
aV20001
p2613
aVle5
p2614
aV577
p2615
aVsun1
p2616
aV-160
p2617
aV17670\u3002
p2618
aV33333
p2619
aV11
p2620
aV94\uff0c
p2621
aVgan1
p2622
aV3350
p2623
aV495
p2624
aVrong3
p2625
aVbian4
p2626
aVxuan3
p2627
aV26
p2628
aV149238
p2629
aVnian3
p2630
aV09431
p2631
aV2\uff1a
p2632
aV021
p2633
aV255
p2634
aVmei2
p2635
aV4\uff0c
p2636
aVzuo3
p2637
aV--45
p2638
aV-486
p2639
aVzuan3
p2640
aVling4
p2641
aVshun4
p2642
aVer3
p2643
aV\uff0c1997
p2644
aVjiao2
p2645
aV2440
p2646
aV6500
p2647
aV08898\u3002
p2648
aV\uff0c57
p2649
aV790
p2650
aV105\uff0c
p2651
aV757\u30017
p2652
aV002
p2653
aV3780
p2654
aV\uff1a1999
p2655
aV2641
p2656
aV209458\u3002
p2657
aV66\uff0c
p2658
aV211\uff0c
p2659
aV09\uff0c
p2660
aVmai2
p2661
aV23\uff0c
p2662
aV119
p2663
aVtao3
p2664
aVxie1
p2665
aV\u3002891106
p2666
aV\uff1f
p2667
aV\u3002891026
p2668
aV938329
p2669
aVlan2
p2670
aVdian4
p2671
aVsang3
p2672
aV11015\u3002
p2673
aV4\uff1a00
p2674
aV\uff0c77
p2675
aV235\uff0c
p2676
aV08400
p2677
aVshi5
p2678
aV\uff0c74
p2679
aV409
p2680
aV3000
p2681
aV6457
p2682
aV672
p2683
aVlao3
p2684
aV1939
p2685
aV\uff0c-2
p2686
aV04
p2687
aVyan4
p2688
aVben3
p2689
aVgao4
p2690
aVquan1
p2691
aVduan1
p2692
aV2851
p2693
aVpei4
p2694
aVpo4
p2695
aV145
p2696
aV36\u300128
p2697
aV5270
p2698
aVya5
p2699
aV--\u3001
p2700
aV\uff0c-210
p2701
aVmi2
p2702
aVme5
p2703
aV\u3002891008
p2704
aVgei3
p2705
aV532\uff0c
p2706
aV297
p2707
aV91-04-06
p2708
aVchan1
p2709
aVlun2
p2710
aV5510
p2711
aVding1
p2712
aV\uff0c767
p2713
aV108
p2714
aVwo1
p2715
aVfan1
p2716
aV01\uff0c7
p2717
aV118418\u3002
p2718
aVceng2
p2719
aV11\uff0c500
p2720
aV22-28
p2721
aV700
p2722
aVsou3
p2723
aVpeng3
p2724
aV254
p2725
aVdie2
p2726
aV1951
p2727
aVjue1
p2728
aV474
p2729
aVbai3
p2730
aVze2
p2731
aV\uff1a
p2732
aV132
p2733
aV-105
p2734
aV83
p2735
aV930
p2736
aV555
p2737
aV3520
p2738
aVchuo1
p2739
aV6\u30017
p2740
aVri4
p2741
aV804\u3002
p2742
aVta3
p2743
aVfang4
p2744
aV\u3001007
p2745
aVzei2
p2746
aV\uff0c-9
p2747
aV171
p2748
aV603
p2749
aV2019
p2750
aV768\u30017
p2751
aV1350417\uff0c
p2752
aVbu1
p2753
aV6\uff1a00
p2754
aV-19
p2755
aV101
p2756
aVcun3
p2757
aV85
p2758
aV\u3002900314
p2759
aV941
p2760
aVling2
p2761
aV287564\uff0c
p2762
aV163
p2763
aV241\u3002
p2764
aVtou1
p2765
aV96\uff0c
p2766
aV780
p2767
aVguo2
p2768
aV54
p2769
aV236
p2770
aV1593
p2771
aVxin1
p2772
aVsheng1
p2773
aV23-14
p2774
aV257
p2775
aVpao4
p2776
aV10724
p2777
aVda3
p2778
aVshuan1
p2779
aVshan3
p2780
aV3188
p2781
aV814
p2782
aV69\uff0c
p2783
aV180
p2784
aVhou3
p2785
aV--16
p2786
aV0157
p2787
aV2\u30013
p2788
aV7-9
p2789
aV17226
p2790
aV9780\u3002
p2791
aV\u3002891011
p2792
aV4625
p2793
aV\u30018
p2794
aV39\u3002
p2795
aV179800
p2796
aV\u3002891113
p2797
aVxin2
p2798
aVniu4
p2799
aVqiu3
p2800
aV026
p2801
aV\u3002890927
p2802
aV44-79
p2803
aVlve3
p2804
aV4319
p2805
aVxiong1
p2806
aVtan4
p2807
aV08600
p2808
aV-\u3001
p2809
aV09264
p2810
aVtuan3
p2811
aV-34
p2812
aV\uff0c73
p2813
aV6-3
p2814
aV207910
p2815
aV97\uff0c
p2816
aV\u300124
p2817
aVluan3
p2818
aVrou4
p2819
aV\uff0c788
p2820
aVmeng4
p2821
aV\uff1a-1
p2822
aV1981
p2823
aVgao1
p2824
aV686
p2825
aV35\uff0c
p2826
aV-9
p2827
aV--126
p2828
aV5215
p2829
aV13\u3002
p2830
aV70\u300180
p2831
aV--49431
p2832
aVkou4
p2833
aVhen2
p2834
aVfa1
p2835
aVchan4
p2836
aV264\uff0c
p2837
aVhuai2
p2838
aVdiao4
p2839
aV288
p2840
aVnei4
p2841
aV20-30\uff0c
p2842
aV\u3002900624
p2843
aV-60
p2844
aVsan4
p2845
aV8\uff1a15
p2846
aVyan3
p2847
aV650\uff0c000
p2848
aV822
p2849
aV0\u3001
p2850
aV08628
p2851
aV1731
p2852
aV2415
p2853
aVche3
p2854
aV1996
p2855
aV8\u30011
p2856
aV\uff0c51
p2857
aV9111
p2858
aV1946
p2859
aV440
p2860
aV\uff0c295
p2861
aVcuan2
p2862
aV920
p2863
aV6-3\u30016-2
p2864
aVbi3
p2865
aVding4
p2866
aV87\u3002
p2867
aV2525
p2868
aV1\uff0c30150\u3002
p2869
aVyang4
p2870
aV183
p2871
aV1975
p2872
aV\u3002890129
p2873
aV\u30014100
p2874
aV167
p2875
aVnu3
p2876
aVxia4
p2877
aV1922
p2878
aV15\uff0c750
p2879
aV\uff0c72
p2880
aV75\uff0c000
p2881
aVchui2
p2882
aV08448
p2883
aV105\uff0c000
p2884
aVzong1
p2885
aV1983
p2886
aV0\u30013
p2887
aV08791
p2888
aV000-
p2889
aVguai3
p2890
aV50-60
p2891
aVshou1
p2892
aV485
p2893
aV\uff0c
p2894
aVhao3
p2895
aV007\u3002
p2896
aV-357
p2897
aVwai3
p2898
aVkan3
p2899
aVzhan3
p2900
aVshu1
p2901
aVgen4
p2902
aVta4
p2903
aV1990\u30011991\u30011992
p2904
aV301
p2905
aV3228
p2906
aV106\u3001118
p2907
aV1040539\u3002
p2908
aVou1
p2909
aVjiu4
p2910
aVsong1
p2911
aVwa2
p2912
aV5000
p2913
aV1700
p2914
aV670
p2915
aV3476\uff0c
p2916
aVer5
p2917
aV\uff0c-10
p2918
aV21\uff0c000
p2919
aVjin3
p2920
aV115557
p2921
aVleng2
p2922
aVzang4
p2923
aV3\uff0c
p2924
aV079\u3002
p2925
aVxiong2
p2926
aVming3
p2927
aVan1
p2928
aV733
p2929
aV9274\uff0c
p2930
aV7
p2931
aV\u3002900519
p2932
aVlang3
p2933
aV1199
p2934
aV312
p2935
aVha1
p2936
aVzhao2
p2937
aV-120
p2938
aV9630
p2939
aVnong4
p2940
aV600
p2941
aV3909
p2942
aVwen2
p2943
aV737-300
p2944
aV1\uff0c000
p2945
aV7700
p2946
aV\uff0c24
p2947
aV\uff0c1971
p2948
aV932
p2949
aV125
p2950
aV2-0
p2951
aVzhou1
p2952
aV236\u3002
p2953
aV-238
p2954
aVweng4
p2955
aV042
p2956
aV200
p2957
aVjian1
p2958
aVyuan2
p2959
aV\uff0c1999
p2960
aVbian3
p2961
aVgeng4
p2962
aV1936-1945
p2963
aVmei4
p2964
aV227\u3002
p2965
aVer2
p2966
aV\u3002891111
p2967
aV29\uff0c029
p2968
aVjing3
p2969
aVkuan3
p2970
aV116\uff0c
p2971
aVni2
p2972
aVgai1
p2973
aVbo4
p2974
aV810\uff0c000
p2975
aVpao1
p2976
aV\uff0c1\uff0c
p2977
aV48
p2978
aVluan4
p2979
aVniu2
p2980
aV19
p2981
aV1977
p2982
aVzao3
p2983
aV181
p2984
aV\uff0c40
p2985
aV102
p2986
aV2459
p2987
aV451
p2988
aV194
p2989
aVsheng3
p2990
aVqiao1
p2991
aV99
p2992
aV\uff0c520
p2993
aVjun1
p2994
aV235
p2995
aV223
p2996
aV\u300148
p2997
aV0-1
p2998
aVjin1
p2999
aV59
p3000
aV-35
p3001
aV106\uff0c
p3002
aV1525
p3003
aV7\u30018
p3004
aV\u3002-
p3005
aVlin4
p3006
aVbo5
p3007
aV4100
p3008
aV3299
p3009
aVpiao3
p3010
aV57
p3011
aV767
p3012
aV08582
p3013
aVkui3
p3014
aV2003
p3015
aV\u30017
p3016
aVdao3
p3017
aV44\uff0c000
p3018
aV97
p3019
aV10984
p3020
aVleng4
p3021
aV11626-29
p3022
aV1930
p3023
aV64\u3002
p3024
aV3921
p3025
aV613
p3026
aVdie1
p3027
aV7-6\uff0c2-6\uff0c\uff0c7-6\uff0c
p3028
aV6-3\uff0c6-3
p3029
aV40
p3030
aVcu4
p3031
aVqian2
p3032
aVgen1
p3033
aV852
p3034
aV62432\u3002
p3035
aVjiang3
p3036
aV\uff1a400
p3037
aV9\uff0c694
p3038
aVfeng1
p3039
aV76
p3040
aV94-07-04
p3041
aV\uff0c19
p3042
aV10236\uff0c
p3043
aV8482
p3044
aVkang1
p3045
aV--2
p3046
aV249\uff0c
p3047
aVdi3
p3048
aVduo3
p3049
aV2800
p3050
aV2571
p3051
aV95\u3002
p3052
aV245\uff0c
p3053
aV157\uff1a7
p3054
aV280\uff0c000
p3055
aV04428\u3002
p3056
aV85\u3002
p3057
aV853
p3058
aVyu3
p3059
aVma5
p3060
aV2057
p3061
aV01
p3062
aV706
p3063
aVluan2
p3064
aVzuan4
p3065
aV800
p3066
aV\uff0c17
p3067
aV\u3002900709
p3068
aV2200
p3069
aV\uff0c1600
p3070
aV263\uff0c
p3071
aV11647
p3072
aV153\u3002
p3073
aVchu1
p3074
aV516
p3075
aV184
p3076
aVhui1
p3077
aVpeng2
p3078
aV-33
p3079
aVyo1
p3080
aV2001
p3081
aVhuang4
p3082
aV-2
p3083
aV\u3002881105
p3084
aVang2
p3085
aV9\uff0c700
p3086
aV\u3001-2
p3087
aV08838\u3002
p3088
aVdan1
p3089
aV52
p3090
aV\uff0c15
p3091
aV\u300257
p3092
aV025
p3093
aV2686
p3094
aV675
p3095
aVzao4
p3096
aV95\uff0c
p3097
aV1879
p3098
aV023
p3099
aV1992
p3100
aVchuan2
p3101
aV4253
p3102
aV2900
p3103
aV426
p3104
aVhan3
p3105
aV31\uff0c
p3106
aVhang2
p3107
aVgan3
p3108
aV2\u3001
p3109
aVbei4
p3110
aVying4
p3111
aVzhe2
p3112
aV940
p3113
aV1947
p3114
aVpin2
p3115
aVdan3
p3116
aVmiao3
p3117
aV\uff0c-117
p3118
aVyun1
p3119
aVrao4
p3120
aV375
p3121
aVqun2
p3122
aVchu4
p3123
aV-11\uff0c
p3124
aV\u3002900530
p3125
aV\uff0c35
p3126
aV120\uff0c
p3127
aV\u3002900528
p3128
aV1313
p3129
aV11991
p3130
aV186152\u3002
p3131
aV203
p3132
aVpai1
p3133
aV--35
p3134
aV44-516
p3135
aVjing1
p3136
aV178
p3137
aV2\uff0c
p3138
aV11447
p3139
aV14476
p3140
aV217\uff0c
p3141
aVnuo4
p3142
aV104
p3143
aVxie2
p3144
aV40\uff0c
p3145
aVtai2
p3146
aV1480
p3147
aV4020
p3148
aV--
p3149
aVsu2
p3150
aVkuang1
p3151
aV340-600
p3152
aVzhen1
p3153
aV5860
p3154
aV09319
p3155
aV394
p3156
aV89\uff0c
p3157
aVbai2
p3158
aV93-85
p3159
aV1971
p3160
aV2\uff0c200
p3161
aV\uff1a2\uff0c530
p3162
aV686\u30013
p3163
aV\u3002910422
p3164
aVyin1
p3165
aVmen5
p3166
aV2670
p3167
aVye4
p3168
aV1984
p3169
aV1919
p3170
aV9300
p3171
aV\u3002911013
p3172
aVjiang1
p3173
aV100-150
p3174
aVreng2
p3175
aVla5
p3176
aVwai4
p3177
aVseng1
p3178
aVliu3
p3179
aVzhe1
p3180
aV425\uff0c
p3181
aV12431\uff0c
p3182
aV80
p3183
aVhou2
p3184
aVlang1
p3185
aV1300
p3186
aVying1
p3187
aV243\uff0c
p3188
aVfu1
p3189
aVcun1
p3190
aV622
p3191
aV\u3002891230
p3192
aV084\u3002
p3193
aV737-200
p3194
aV17\uff0c554
p3195
aVhuan4
p3196
aVgong4
p3197
aV243
p3198
aV-90
p3199
aV09497
p3200
aVke3
p3201
aV10\u300113
p3202
aV6-3\uff0c2-6\uff0c6-1\uff0c6-3
p3203
aV08625
p3204
aV3-12
p3205
aV6990
p3206
aV\u3002880824
p3207
aVgu3
p3208
aV3740
p3209
aV-17
p3210
aV14255
p3211
aV38\uff0c
p3212
aV228
p3213
aV684
p3214
aV\u3002900807
p3215
aVga4
p3216
aV1200
p3217
aVge1
p3218
aVzuo2
p3219
aV8570
p3220
aVdun3
p3221
aV7\uff0c850
p3222
aV139
p3223
aV-62
p3224
aV19\uff0c300
p3225
aV494
p3226
aV1986
p3227
aV09267
p3228
aV\u3002900622
p3229
aV2856
p3230
aV325\u3002
p3231
aV168\uff0c
p3232
aV-117
p3233
aVzong4
p3234
aV-92
p3235
aV1979
p3236
aV596
p3237
aV157\uff0c
p3238
aVmeng3
p3239
aV42\uff0c
p3240
aVzeng1
p3241
aV\uff0c220
p3242
aV\uff1a380
p3243
aV09094\u3002
p3244
aV42\uff0c2002
p3245
aV09079
p3246
aV1483
p3247
aVchuai1
p3248
aV20\uff0c000
p3249
aV\u3002891031
p3250
aV\u3002881220
p3251
aVna3
p3252
aV1995
p3253
aVben4
p3254
aV\u3002891125
p3255
aV1\uff0c585\uff0c000
p3256
aV224\uff0c
p3257
aV0\u30010
p3258
aV\uff0c48
p3259
aVsu4
p3260
aV9835
p3261
aV777-200
p3262
aV156\uff0c
p3263
aV1183
p3264
aV2\uff1a0733
p3265
aVzhan4
p3266
aV5\uff1a45
p3267
aVhan1
p3268
aV2016
p3269
aV1997-98
p3270
aV7667
p3271
aVcui1
p3272
aVti4
p3273
aV10787\u3002
p3274
aV\uff0c-18
p3275
aV\uff0c1988
p3276
aVdiao1
p3277
aVxuan4
p3278
aV147\u3002
p3279
aV1-11
p3280
aV546\uff0c
p3281
aV598763\u3002
p3282
aVgao3
p3283
aV19\u3002
p3284
aV08696
p3285
aVsou1
p3286
aV181\u3002
p3287
aV911
p3288
aV2570
p3289
aV869\uff0c
p3290
aV86
p3291
aV236585\uff0c
p3292
aV032
p3293
aVdai1
p3294
aV12295\uff0c
p3295
aV367
p3296
aV19-22
p3297
aV1560
p3298
aV1372399
p3299
aVshen1
p3300
aVpian2
p3301
aV30\u3002
p3302
aV21000
p3303
aV7\uff1a30
p3304
aV1040
p3305
aV382
p3306
aV90-80
p3307
aVding3
p3308
aV161\uff0c
p3309
aV1945
p3310
aV1-6\uff0c6-757\uff0c6-4\uff0c7-673\uff0c6-3
p3311
aV2\uff0c2\uff0c
p3312
aV6-3\uff0c4-6\uff0c6-4
p3313
aV4000\uff0c
p3314
aV\uff0c13
p3315
aV\u3001-
p3316
aV4360
p3317
aV3\uff1a30
p3318
aVka1
p3319
aV6\uff0c
p3320
aV2002
p3321
aV\u2026\u2026\uff0c
p3322
aV437
p3323
aV587
p3324
aV19561971
p3325
aV13\u300114
p3326
aV0\u30016
p3327
aVchao4
p3328
aV234
p3329
aV777
p3330
aVzha4
p3331
aV57\uff0c
p3332
aV-43
p3333
aV104-107
p3334
aVyu4
p3335
aV\u3002900429
p3336
aV\u2026\uff0c
p3337
aV1910
p3338
aV110
p3339
aV753
p3340
aV1955
p3341
aV1957
p3342
aV7560
p3343
aV50-14
p3344
aV446
p3345
aVmi1
p3346
aV09143
p3347
aV7-14
p3348
aV532
p3349
aV778\uff0c
p3350
aV17\uff0c
p3351
aVqiao4
p3352
aVlin1
p3353
aV08580
p3354
aV10065
p3355
aV3512
p3356
aV12000
p3357
aV1918-1988
p3358
aV2\uff0c5602
p3359
aVqi1
p3360
aV3969
p3361
aV5-
p3362
aV000--
p3363
aV31\u3002
p3364
aVzhai4
p3365
aV090
p3366
aVju1
p3367
aV621
p3368
aV435
p3369
aVluo2
p3370
aV\uff0c185
p3371
aVkui1
p3372
aV\uff1a3-36
p3373
aV179
p3374
aV\u3002891024
p3375
aVfan2
p3376
aVgan4
p3377
aV1\uff0c300
p3378
aV166
p3379
aV46265
p3380
aVshai1
p3381
aV117\uff0c571
p3382
aV899
p3383
aVcuan1
p3384
aV15\uff0c
p3385
aVye3
p3386
aVniao3
p3387
aV1732
p3388
aV01\uff0c
p3389
aV2100
p3390
aV3685
p3391
aV499
p3392
aV1\uff0c700
p3393
aV\uff0c49
p3394
aV228\u3002
p3395
aVju3
p3396
aVchuo4
p3397
aVpen2
p3398
aVhuang3
p3399
aVguai1
p3400
aV467
p3401
aV68\uff0c
p3402
aVfan3
p3403
aVzui3
p3404
aVyong3
p3405
aV107\uff0c
p3406
aV77\u3002
p3407
aV432
p3408
aV\uff0c\uff1a
p3409
aV-2001
p3410
aVchong2
p3411
aV\uff0c1995
p3412
aV68
p3413
aVpan2
p3414
aV80606
p3415
aV9363
p3416
aV874
p3417
aVdui1
p3418
aVcu2
p3419
aVkan4
p3420
aV134
p3421
aV603\uff0c
p3422
aVshou3
p3423
aV14662
p3424
aV94
p3425
aV2007
p3426
aVpeng4
p3427
aV955
p3428
aV\u3002900308
p3429
aVmou3
p3430
aVxing1
p3431
aV127\uff0c
p3432
aV1898
p3433
aV18
p3434
aV26-1516\uff0c
p3435
aV6-3\uff0c6-4
p3436
aV3250
p3437
aV\uff0c41
p3438
aVye1
p3439
aV6-3\uff0c6-2
p3440
aV380\uff0c
p3441
aVchou1
p3442
aVzha3
p3443
aV0\u3002
p3444
aVfei2
p3445
aV580
p3446
aV1-2
p3447
aV\uff0c1973
p3448
aV\u3002891018
p3449
aVxiang2
p3450
aV9553
p3451
aV160\uff0c185
p3452
aV740
p3453
aV08505
p3454
aV501\uff0c
p3455
aV3\uff0c900
p3456
aV22
p3457
aVlu1
p3458
aVmo2
p3459
aV113
p3460
aV2012
p3461
aV287
p3462
aVnin2
p3463
aV158
p3464
aV2003-2006
p3465
aV10971
p3466
aV1901
p3467
aVzha1
p3468
aVsha3
p3469
aV4394
p3470
aV192
p3471
aV9275
p3472
aV5097
p3473
aV7\uff0c
p3474
aV10500
p3475
aV3-5
p3476
aV411
p3477
aV\u3002880227
p3478
aVbing1
p3479
aV333\uff0c803
p3480
aV8-34
p3481
aVdong3
p3482
aV2-1
p3483
aVcang1
p3484
aV-47\u3001
p3485
aV28\u3001
p3486
aV218
p3487
aVlan3
p3488
aVliao1
p3489
aV--18
p3490
aVfou3
p3491
aV319\uff0c320
p3492
aV1968
p3493
aV\uff0c737-800
p3494
aV13032
p3495
aV775\uff0c
p3496
aV-------
p3497
aV1149
p3498
aVcheng1
p3499
aVwu4
p3500
aV\uff0c500
p3501
aV09100
p3502
aV1630
p3503
aVcan3
p3504
aVgai4
p3505
aVai3
p3506
aV1748
p3507
aVlian2
p3508
aV238
p3509
aV12286
p3510
aV30\uff0c
p3511
aV55
p3512
aV3-0
p3513
aVdiu1
p3514
aV093
p3515
aV4155
p3516
aV3499
p3517
aV24\u30015
p3518
aVai1
p3519
aVyi1
p3520
aV62\u3002
p3521
aV36\uff0c
p3522
aVshuai4
p3523
aV08798
p3524
aV51\uff0c
p3525
aV425
p3526
aV1\uff0c42636\u3002
p3527
aV1-1
p3528
aVchun2
p3529
aVning2
p3530
aVzhuo1
p3531
aV119\uff0c
p3532
aVniao4
p3533
aVfeng4
p3534
aV2164
p3535
aV09422
p3536
aVshai3
p3537
aVliao3
p3538
aV2002--2005\uff0c
p3539
aV---27
p3540
aV12033
p3541
aV5--8
p3542
aVshen3
p3543
aV9580
p3544
aV\u3002900328
p3545
aV10-10
p3546
aV1400
p3547
aVpen4
p3548
aV3496
p3549
aV7444
p3550
aVzhai1
p3551
aV280
p3552
aV127
p3553
aV03-1
p3554
aV5357
p3555
aV7-
p3556
aV2860
p3557
aVjie4
p3558
aV266
p3559
aV1\uff1a25\uff0c
p3560
aV\u3002891028
p3561
aV--8
p3562
aV185\uff0c
p3563
aV23290
p3564
aV-300
p3565
aV21--
p3566
aV-115
p3567
aV079
p3568
aV9294
p3569
aVpang1
p3570
aVzuo1
p3571
aV1-
p3572
aV47\uff0c
p3573
aV62056
p3574
aVqiang3
p3575
aV62225
p3576
aVreng1
p3577
aVhong3
p3578
aV310
p3579
aV16\u30015
p3580
aV12
p3581
aVfeng3
p3582
aV62\uff0c
p3583
aV39627
p3584
aV3060
p3585
aV1286
p3586
aVlei2
p3587
aV366\uff0c
p3588
aV\u3002880924
p3589
aV72
p3590
aVtun2
p3591
aVtong2
p3592
aV\u3002900510
p3593
aV\uff1a1
p3594
aV\uff0c1992
p3595
aVhua4
p3596
aVwan2
p3597
aV\u3002891023
p3598
aV08724
p3599
aVxiu1
p3600
aV025-050
p3601
aV\uff0c7-9
p3602
aV2104
p3603
aV275
p3604
aVnve4
p3605
aV51\u3002
p3606
aV1966
p3607
aV\uff0c37
p3608
aV49442
p3609
aV3390
p3610
aV\u3002880626
p3611
aV33
p3612
aV70\uff0c
p3613
aV1994\u30011995
p3614
aV3142
p3615
aVhui4
p3616
aV1-1\u3002
p3617
aVkao3
p3618
aVyan2
p3619
aVlian4
p3620
aV1710
p3621
aV\u3002900116
p3622
aV\uff0c32
p3623
aV376
p3624
aVqiao2
p3625
aV01\u3002
p3626
aV\uff0c99
p3627
aV20-20
p3628
aVkun4
p3629
aVfu3
p3630
aVshou4
p3631
aV10702
p3632
aV193\u3002
p3633
aV6--3\uff0c6-2
p3634
aVxie3
p3635
aV50\uff0c
p3636
aVou3
p3637
aV5\u30016
p3638
aVe3
p3639
aV767-300\uff0c
p3640
aV\u3002891209
p3641
aVlei4
p3642
aV1920
p3643
aVgou1
p3644
aVluo4
p3645
aVyun3
p3646
aV27\u3002
p3647
aVsao3
p3648
aVzun3
p3649
aV286\u3002
p3650
aVzhuan1
p3651
aV03
p3652
aV1963
p3653
aVshuo4
p3654
aVduan4
p3655
aV2\u30016
p3656
aV6\uff0c7
p3657
aVniu3
p3658
aVnen4
p3659
aV3809
p3660
aV147
p3661
aV90
p3662
aVsha4
p3663
aV5430
p3664
aV737-800
p3665
aVchi1
p3666
aV500\uff0c000
p3667
aV0\uff0c
p3668
aV004\u3002
p3669
aV-16\u3002
p3670
aV3550
p3671
aVqi4
p3672
aV460
p3673
aV\uff0c65
p3674
aV275\u3002
p3675
aV881\u3002
p3676
aV15650
p3677
aV44
p3678
aV9-11
p3679
aV3100
p3680
aVjia2
p3681
aVqi3
p3682
aVzhai3
p3683
aVchang3
p3684
aV3-2
p3685
aV2195
p3686
aV-047
p3687
aV2020
p3688
aV169
p3689
aV\uff0c2008
p3690
aV80\uff0c
p3691
aVqian4
p3692
aV3179
p3693
aV1940
p3694
aV7465\uff0c
p3695
aV2006
p3696
aVcun4
p3697
aV\uff0c3
p3698
aV79\uff0c
p3699
aV28965
p3700
aV319\uff0c
p3701
aVhuo3
p3702
aV\u2026\u2026
p3703
aV\u30011958
p3704
aV\u300220
p3705
aV\u3002891004
p3706
aV7-67-2\uff0c3-6\uff0c6-2
p3707
aVcheng3
p3708
aV272
p3709
aV25\u300126
p3710
aV\u30012012\u3001
p3711
aVbu2
p3712
aV144849
p3713
aVwen1
p3714
aVshei2
p3715
aV1-9
p3716
aV5010
p3717
aV4955
p3718
aVshao4
p3719
aV116-110
p3720
aV170-180
p3721
aV--3\uff0c
p3722
aV-88
p3723
aV08954
p3724
aV08630
p3725
aV114\u3002
p3726
aV\u3002880814
p3727
aVzhe4
p3728
aV17
p3729
aV9-5
p3730
aV3225
p3731
aV17\u3002
p3732
aV225-275\u3002
p3733
aV-71
p3734
aV8000
p3735
aV1678
p3736
aVyue4
p3737
aVzi2
p3738
aVmin2
p3739
aVna2
p3740
aV\uff0c2001-2005
p3741
aVluo3
p3742
aV76000
p3743
aVzhuan3
p3744
aV\uff0c00
p3745
aVcou4
p3746
aV\u300151
p3747
aV\u3002891101
p3748
aV606
p3749
aV520
p3750
aV1458958
p3751
aV-27
p3752
aVdu1
p3753
aVhao4
p3754
aV916
p3755
aV19711976
p3756
aV3047
p3757
aVya1
p3758
aV42000
p3759
aV\u3002-1
p3760
aVshang4
p3761
aVka3
p3762
aV229186\u3002
p3763
aV15-19
p3764
aV57\u3001
p3765
aV\u3002891014
p3766
aV240\u3002
p3767
aVyin3
p3768
aV\u3001188
p3769
aV-81
p3770
aVzhao3
p3771
aV3-36
p3772
aV97\uff1a92
p3773
aVcang2
p3774
aV27825
p3775
aV109
p3776
aV11112
p3777
aVceng1
p3778
aV93
p3779
aV100\uff0c000
p3780
aV297\uff0c
p3781
aVse4
p3782
aVan3
p3783
aV\u3002890519
p3784
aV09161
p3785
aV1859
p3786
aV6-4\u30016-3
p3787
aV4\u30015
p3788
aV702
p3789
aV\u3002891117
p3790
aV\u30017088
p3791
aVzang1
p3792
aV108-38\uff0c
p3793
aV2515
p3794
aV269
p3795
aV11-11
p3796
aV182
p3797
aV-\uff0c
p3798
aVcao1
p3799
aV3\uff0c850
p3800
aV\uff0c300
p3801
aVnian4
p3802
aV041
p3803
aV594
p3804
aV\u3002900215
p3805
aV--19
p3806
aV14373\u3002
p3807
aVzhang3
p3808
aV10075
p3809
aV16\u300117
p3810
aV1500
p3811
aV3008
p3812
aV2735
p3813
aV\uff0c1938
p3814
aV711
p3815
aV32\uff0c
p3816
aV-76
p3817
aV689
p3818
aV5-6
p3819
aV537
p3820
aVjuan3
p3821
aV6238
p3822
aV\u300224
p3823
aV675\u30014
p3824
aV\uff0c1975
p3825
aV\u3002880908
p3826
aV4\u3002
p3827
aVrui3
p3828
aV7186
p3829
aVzhao4
p3830
aV104-90
p3831
aVzhu3
p3832
aV17866\uff0c
p3833
aV14\uff0c186
p3834
aV250
p3835
aV\uff0c1998
p3836
aVnai3
p3837
aV206
p3838
aV29\u3002
p3839
aV757
p3840
aVtai1
p3841
aVwan4
p3842
aVchi4
p3843
aV100
p3844
aV936
p3845
aVtou4
p3846
aV--154
p3847
aV29457\u3002
p3848
aV\u3002911206
p3849
aV26\u300127
p3850
aV10986
p3851
aV1000\u3002
p3852
aVmeng1
p3853
aVqu4
p3854
aVkao4
p3855
aV660
p3856
aVcun2
p3857
aV15\uff1a00\u3002
p3858
aV26\uff0c
p3859
aVha2
p3860
aVquan4
p3861
aV3425
p3862
aV990
p3863
aV1\uff1a4535\u3002
p3864
aV089
p3865
aV4546
p3866
aV12262
p3867
aVkong3
p3868
aVshu4
p3869
aVshi4
p3870
aV2600
p3871
aV\u3002901211
p3872
aVxue3
p3873
aVwang2
p3874
aVpang4
p3875
aV1350
p3876
aV299
p3877
aV\u3001-18
p3878
aV419
p3879
aVcong2
p3880
aV630\uff0c188
p3881
aV150
p3882
aVchong3
p3883
aVtie4
p3884
aV6-4\uff0c6-7\uff0c6-3\uff0c
p3885
aVcai3
p3886
aV--17
p3887
aV4986
p3888
aVliang4
p3889
aV2703
p3890
aVwang4
p3891
aV563
p3892
aV1
p3893
aVfen1
p3894
aV331\u3002
p3895
aVdi1
p3896
aV2588
p3897
aV233\uff0c
p3898
aV2-
p3899
aV777-300
p3900
aV276
p3901
aV204
p3902
aV15-20
p3903
aV\uff0c18
p3904
aV92
p3905
aV\u3002890126
p3906
aV22--516
p3907
aV81
p3908
aV71\uff0c
p3909
aV483
p3910
aV1991
p3911
aV4-6\u30016-4\u30017-673
p3912
aVzi5
p3913
aV205
p3914
aV4170
p3915
aV475
p3916
aVyong2
p3917
aV\uff0c\uff0c\u3002
p3918
aV600\uff0c000
p3919
aVma3
p3920
aV55\u3002
p3921
aVman3
p3922
aV131\u3002
p3923
aV3
p3924
aVtu1
p3925
aVzu3
p3926
aVguo1
p3927
aV08788
p3928
aV3-716
p3929
aV-40
p3930
aV7577
p3931
aVsi3
p3932
aV6-2\u30011-6\u30016--3
p3933
aV9\uff0c888
p3934
aVren2
p3935
aVtang4
p3936
aV-
p3937
aV08700
p3938
aV1102494
p3939
aV5\uff0c92642
p3940
aVdong4
p3941
aV1978
p3942
aVduan3
p3943
aV32\uff0c430
p3944
aV\uff0c4
p3945
aV1996-97
p3946
aVzhai2
p3947
aV\u30011995
p3948
aV-84001
p3949
aVtuan1
p3950
aV--24
p3951
aV50\u3002
p3952
aVyin4
p3953
aV3300
p3954
aV11\uff1a30
p3955
aV9050
p3956
aV08923
p3957
aV8500
p3958
aV245
p3959
aV--15
p3960
aVkui2
p3961
aV320\u3002
p3962
aV\u30021
p3963
aV323\uff0c
p3964
aV-238\uff0c
p3965
aV-15\uff0c
p3966
aV-16
p3967
aV30
p3968
aV75\u3002
p3969
aV55\uff0c639\u3002
p3970
aV-3
p3971
aV046
p3972
aV\u30011700
p3973
aV-3\uff0c
p3974
aV178\u3002
p3975
aV088
p3976
aV50359
p3977
aV096
p3978
aVjuan4
p3979
aV\u3002891017
p3980
aV--60
p3981
aVli1
p3982
aV1\uff0c030
p3983
aVhei1
p3984
aV138
p3985
aVgun3
p3986
aVcuan4
p3987
aVfang2
p3988
aV2000-2001
p3989
aVlou2
p3990
aV09004
p3991
aV-7
p3992
aVzhou3
p3993
aV9052
p3994
aV800\u3002
p3995
aV2023
p3996
aV2408
p3997
aV112-104
p3998
aV601
p3999
aV1985
p4000
aV5824
p4001
aVzun1
p4002
aV3870
p4003
aV08692
p4004
aV\uff1a10
p4005
aV2620
p4006
aVbei3
p4007
aVzheng3
p4008
aV483\uff0c9
p4009
aVsou4
p4010
aVbei5
p4011
aVhong1
p4012
atp4013
Rp4014
.